target datalayout = "e-m:e-p270:32:32-p271:32:32-p272:64:64-i64:64-i128:128-f80:128-n8:16:32:64-S128"
target triple = "x86_64-pc-linux-gnu"

%struct.WaitEventSet = type { ptr, i32, i32, ptr, ptr, i32, i8, i32, ptr }
%struct.Latch = type { i32, i32, i8, i32 }
%struct.WaitEvent = type { i32, i32, i32, ptr }

@signal_fd = internal global i32 -1, align 4
@.str.1 = private unnamed_addr constant [8 x i8] c"latch.c\00", align 1
@MyProcPid = external global i32, align 4
@.str.5 = private unnamed_addr constant [48 x i8] c"cannot wait on a latch owned by another process\00", align 1
@__func__.AddWaitEventToSet = private unnamed_addr constant [18 x i8] c"AddWaitEventToSet\00", align 1
@.str.6 = private unnamed_addr constant [35 x i8] c"cannot wait on more than one latch\00", align 1
@.str.7 = private unnamed_addr constant [36 x i8] c"latch events only support being set\00", align 1
@.str.8 = private unnamed_addr constant [47 x i8] c"cannot wait on latch without a specified latch\00", align 1
@.str.9 = private unnamed_addr constant [45 x i8] c"cannot wait on socket event without a socket\00", align 1
@postmaster_alive_fds = external global [2 x i32], align 4

; Function Attrs: nounwind uwtable
define dso_local i32 @AddWaitEventToSet(ptr noundef %0, i32 noundef %1, i32 noundef %2, ptr noundef %3, ptr noundef %4) #0 {
  %6 = alloca ptr, align 8
  %7 = alloca i32, align 4
  %8 = alloca i32, align 4
  %9 = alloca ptr, align 8
  %10 = alloca ptr, align 8
  %11 = alloca ptr, align 8
  store ptr %0, ptr %6, align 8
  store i32 %1, ptr %7, align 4
  store i32 %2, ptr %8, align 4
  store ptr %3, ptr %9, align 8
  store ptr %4, ptr %10, align 8
  call void @llvm.lifetime.start.p0(i64 8, ptr %11) #9
  %12 = load i32, ptr %7, align 4
  %13 = icmp eq i32 %12, 32
  br i1 %13, label %14, label %17

14:                                               ; preds = %5
  store i32 16, ptr %7, align 4
  %15 = load ptr, ptr %6, align 8
  %16 = getelementptr inbounds nuw %struct.WaitEventSet, ptr %15, i32 0, i32 6
  store i8 1, ptr %16, align 4
  br label %17

17:                                               ; preds = %14, %5
  %18 = load ptr, ptr %9, align 8
  %19 = icmp ne ptr %18, null
  br i1 %19, label %20, label %69

20:                                               ; preds = %17
  %21 = load ptr, ptr %9, align 8
  %22 = getelementptr inbounds nuw %struct.Latch, ptr %21, i32 0, i32 3
  %23 = load i32, ptr %22, align 4
  %24 = load i32, ptr @MyProcPid, align 4
  %25 = icmp ne i32 %23, %24
  br i1 %25, label %26, label %37

26:                                               ; preds = %20
  br label %27

27:                                               ; preds = %26
  br i1 true, label %28, label %30

28:                                               ; preds = %27
  %29 = call zeroext i1 @errstart_cold(i32 noundef 21, ptr noundef null) #10
  br i1 %29, label %32, label %34

30:                                               ; preds = %27
  %31 = call zeroext i1 @errstart(i32 noundef 21, ptr noundef null)
  br i1 %31, label %32, label %34

32:                                               ; preds = %30, %28
  %33 = call i32 (ptr, ...) @errmsg_internal(ptr noundef @.str.5)
  call void @errfinish(ptr noundef @.str.1, i32 noundef 974, ptr noundef @__func__.AddWaitEventToSet)
  br label %34

34:                                               ; preds = %32, %30, %28
  unreachable

35:                                               ; No predecessors!
  br label %36

36:                                               ; preds = %35
  br label %37

37:                                               ; preds = %36, %20
  %38 = load ptr, ptr %6, align 8
  %39 = getelementptr inbounds nuw %struct.WaitEventSet, ptr %38, i32 0, i32 4
  %40 = load ptr, ptr %39, align 8
  %41 = icmp ne ptr %40, null
  br i1 %41, label %42, label %53

42:                                               ; preds = %37
  br label %43

43:                                               ; preds = %42
  br i1 true, label %44, label %46

44:                                               ; preds = %43
  %45 = call zeroext i1 @errstart_cold(i32 noundef 21, ptr noundef null) #10
  br i1 %45, label %48, label %50

46:                                               ; preds = %43
  %47 = call zeroext i1 @errstart(i32 noundef 21, ptr noundef null)
  br i1 %47, label %48, label %50

48:                                               ; preds = %46, %44
  %49 = call i32 (ptr, ...) @errmsg_internal(ptr noundef @.str.6)
  call void @errfinish(ptr noundef @.str.1, i32 noundef 976, ptr noundef @__func__.AddWaitEventToSet)
  br label %50

50:                                               ; preds = %48, %46, %44
  unreachable

51:                                               ; No predecessors!
  br label %52

52:                                               ; preds = %51
  br label %53

53:                                               ; preds = %52, %37
  %54 = load i32, ptr %7, align 4
  %55 = and i32 %54, 1
  %56 = icmp ne i32 %55, 1
  br i1 %56, label %57, label %68

57:                                               ; preds = %53
  br label %58

58:                                               ; preds = %57
  br i1 true, label %59, label %61

59:                                               ; preds = %58
  %60 = call zeroext i1 @errstart_cold(i32 noundef 21, ptr noundef null) #10
  br i1 %60, label %63, label %65

61:                                               ; preds = %58
  %62 = call zeroext i1 @errstart(i32 noundef 21, ptr noundef null)
  br i1 %62, label %63, label %65

63:                                               ; preds = %61, %59
  %64 = call i32 (ptr, ...) @errmsg_internal(ptr noundef @.str.7)
  call void @errfinish(ptr noundef @.str.1, i32 noundef 978, ptr noundef @__func__.AddWaitEventToSet)
  br label %65

65:                                               ; preds = %63, %61, %59
  unreachable

66:                                               ; No predecessors!
  br label %67

67:                                               ; preds = %66
  br label %68

68:                                               ; preds = %67, %53
  br label %85

69:                                               ; preds = %17
  %70 = load i32, ptr %7, align 4
  %71 = and i32 %70, 1
  %72 = icmp ne i32 %71, 0
  br i1 %72, label %73, label %84

73:                                               ; preds = %69
  br label %74

74:                                               ; preds = %73
  br i1 true, label %75, label %77

75:                                               ; preds = %74
  %76 = call zeroext i1 @errstart_cold(i32 noundef 21, ptr noundef null) #10
  br i1 %76, label %79, label %81

77:                                               ; preds = %74
  %78 = call zeroext i1 @errstart(i32 noundef 21, ptr noundef null)
  br i1 %78, label %79, label %81

79:                                               ; preds = %77, %75
  %80 = call i32 (ptr, ...) @errmsg_internal(ptr noundef @.str.8)
  call void @errfinish(ptr noundef @.str.1, i32 noundef 983, ptr noundef @__func__.AddWaitEventToSet)
  br label %81

81:                                               ; preds = %79, %77, %75
  unreachable

82:                                               ; No predecessors!
  br label %83

83:                                               ; preds = %82
  br label %84

84:                                               ; preds = %83, %69
  br label %85

85:                                               ; preds = %84, %68
  %86 = load i32, ptr %8, align 4
  %87 = icmp eq i32 %86, -1
  br i1 %87, label %88, label %103

88:                                               ; preds = %85
  %89 = load i32, ptr %7, align 4
  %90 = and i32 %89, 134
  %91 = icmp ne i32 %90, 0
  br i1 %91, label %92, label %103

92:                                               ; preds = %88
  br label %93

93:                                               ; preds = %92
  br i1 true, label %94, label %96

94:                                               ; preds = %93
  %95 = call zeroext i1 @errstart_cold(i32 noundef 21, ptr noundef null) #10
  br i1 %95, label %98, label %100

96:                                               ; preds = %93
  %97 = call zeroext i1 @errstart(i32 noundef 21, ptr noundef null)
  br i1 %97, label %98, label %100

98:                                               ; preds = %96, %94
  %99 = call i32 (ptr, ...) @errmsg_internal(ptr noundef @.str.9)
  call void @errfinish(ptr noundef @.str.1, i32 noundef 988, ptr noundef @__func__.AddWaitEventToSet)
  br label %100

100:                                              ; preds = %98, %96, %94
  unreachable

101:                                              ; No predecessors!
  br label %102

102:                                              ; preds = %101
  br label %103

103:                                              ; preds = %102, %88, %85
  %104 = load ptr, ptr %6, align 8
  %105 = getelementptr inbounds nuw %struct.WaitEventSet, ptr %104, i32 0, i32 3
  %106 = load ptr, ptr %105, align 8
  %107 = load ptr, ptr %6, align 8
  %108 = getelementptr inbounds nuw %struct.WaitEventSet, ptr %107, i32 0, i32 1
  %109 = load i32, ptr %108, align 8
  %110 = sext i32 %109 to i64
  %111 = getelementptr inbounds %struct.WaitEvent, ptr %106, i64 %110
  store ptr %111, ptr %11, align 8
  %112 = load ptr, ptr %6, align 8
  %113 = getelementptr inbounds nuw %struct.WaitEventSet, ptr %112, i32 0, i32 1
  %114 = load i32, ptr %113, align 8
  %115 = add i32 %114, 1
  store i32 %115, ptr %113, align 8
  %116 = load ptr, ptr %11, align 8
  %117 = getelementptr inbounds nuw %struct.WaitEvent, ptr %116, i32 0, i32 0
  store i32 %114, ptr %117, align 8
  %118 = load i32, ptr %8, align 4
  %119 = load ptr, ptr %11, align 8
  %120 = getelementptr inbounds nuw %struct.WaitEvent, ptr %119, i32 0, i32 2
  store i32 %118, ptr %120, align 8
  %121 = load i32, ptr %7, align 4
  %122 = load ptr, ptr %11, align 8
  %123 = getelementptr inbounds nuw %struct.WaitEvent, ptr %122, i32 0, i32 1
  store i32 %121, ptr %123, align 4
  %124 = load ptr, ptr %10, align 8
  %125 = load ptr, ptr %11, align 8
  %126 = getelementptr inbounds nuw %struct.WaitEvent, ptr %125, i32 0, i32 3
  store ptr %124, ptr %126, align 8
  %127 = load i32, ptr %7, align 4
  %128 = icmp eq i32 %127, 1
  br i1 %128, label %129, label %141

129:                                              ; preds = %103
  %130 = load ptr, ptr %9, align 8
  %131 = load ptr, ptr %6, align 8
  %132 = getelementptr inbounds nuw %struct.WaitEventSet, ptr %131, i32 0, i32 4
  store ptr %130, ptr %132, align 8
  %133 = load ptr, ptr %11, align 8
  %134 = getelementptr inbounds nuw %struct.WaitEvent, ptr %133, i32 0, i32 0
  %135 = load i32, ptr %134, align 8
  %136 = load ptr, ptr %6, align 8
  %137 = getelementptr inbounds nuw %struct.WaitEventSet, ptr %136, i32 0, i32 5
  store i32 %135, ptr %137, align 8
  %138 = load i32, ptr @signal_fd, align 4
  %139 = load ptr, ptr %11, align 8
  %140 = getelementptr inbounds nuw %struct.WaitEvent, ptr %139, i32 0, i32 2
  store i32 %138, ptr %140, align 8
  br label %149

141:                                              ; preds = %103
  %142 = load i32, ptr %7, align 4
  %143 = icmp eq i32 %142, 16
  br i1 %143, label %144, label %148

144:                                              ; preds = %141
  %145 = load i32, ptr @postmaster_alive_fds, align 4
  %146 = load ptr, ptr %11, align 8
  %147 = getelementptr inbounds nuw %struct.WaitEvent, ptr %146, i32 0, i32 2
  store i32 %145, ptr %147, align 8
  br label %148

148:                                              ; preds = %144, %141
  br label %149

149:                                              ; preds = %148, %129
  %150 = load ptr, ptr %6, align 8
  %151 = load ptr, ptr %11, align 8
  call void @WaitEventAdjustEpoll(ptr noundef %150, ptr noundef %151, i32 noundef 1)
  %152 = load ptr, ptr %11, align 8
  %153 = getelementptr inbounds nuw %struct.WaitEvent, ptr %152, i32 0, i32 0
  %154 = load i32, ptr %153, align 8
  call void @llvm.lifetime.end.p0(i64 8, ptr %11) #9
  ret i32 %154
}