; Function Attrs: nounwind uwtable
define dso_local i32 @AddWaitEventToSet(ptr noundef captures(none) %0, i32 noundef %1, i32 noundef %2, ptr noundef %3, ptr noundef %4) local_unnamed_addr #0 {
  %6 = icmp eq i32 %1, 32
  br i1 %6, label %7, label %9

7:                                                ; preds = %5
  %8 = getelementptr inbounds nuw i8, ptr %0, i64 36
  store i8 1, ptr %8, align 4
  br label %9

9:                                                ; preds = %7, %5
  %.0 = phi i32 [ 16, %7 ], [ %1, %5 ]
  %.not = icmp eq ptr %3, null
  br i1 %.not, label %28, label %10

10:                                               ; preds = %9
  %11 = getelementptr inbounds nuw i8, ptr %3, i64 12
  %12 = load i32, ptr %11, align 4
  %13 = load i32, ptr @MyProcPid, align 4
  %.not32 = icmp eq i32 %12, %13
  br i1 %.not32, label %17, label %14

14:                                               ; preds = %10
  %15 = tail call zeroext i1 @errstart_cold(i32 noundef 21, ptr noundef null) #15
  tail call void @llvm.assume(i1 %15)
  %16 = tail call i32 (ptr, ...) @errmsg_internal(ptr noundef nonnull @.str.5) #14
  tail call void @errfinish(ptr noundef nonnull @.str.1, i32 noundef 974, ptr noundef nonnull @__func__.AddWaitEventToSet) #14
  unreachable

17:                                               ; preds = %10
  %18 = getelementptr inbounds nuw i8, ptr %0, i64 24
  %19 = load ptr, ptr %18, align 8
  %.not33 = icmp eq ptr %19, null
  br i1 %.not33, label %23, label %20

20:                                               ; preds = %17
  %21 = tail call zeroext i1 @errstart_cold(i32 noundef 21, ptr noundef null) #15
  tail call void @llvm.assume(i1 %21)
  %22 = tail call i32 (ptr, ...) @errmsg_internal(ptr noundef nonnull @.str.6) #14
  tail call void @errfinish(ptr noundef nonnull @.str.1, i32 noundef 976, ptr noundef nonnull @__func__.AddWaitEventToSet) #14
  unreachable

23:                                               ; preds = %17
  %24 = and i32 %.0, 1
  %.not34.not = icmp eq i32 %24, 0
  br i1 %.not34.not, label %25, label %33

25:                                               ; preds = %23
  %26 = tail call zeroext i1 @errstart_cold(i32 noundef 21, ptr noundef null) #15
  tail call void @llvm.assume(i1 %26)
  %27 = tail call i32 (ptr, ...) @errmsg_internal(ptr noundef nonnull @.str.7) #14
  tail call void @errfinish(ptr noundef nonnull @.str.1, i32 noundef 978, ptr noundef nonnull @__func__.AddWaitEventToSet) #14
  unreachable

28:                                               ; preds = %9
  %29 = and i32 %.0, 1
  %.not31 = icmp eq i32 %29, 0
  br i1 %.not31, label %33, label %30

30:                                               ; preds = %28
  %31 = tail call zeroext i1 @errstart_cold(i32 noundef 21, ptr noundef null) #15
  tail call void @llvm.assume(i1 %31)
  %32 = tail call i32 (ptr, ...) @errmsg_internal(ptr noundef nonnull @.str.8) #14
  tail call void @errfinish(ptr noundef nonnull @.str.1, i32 noundef 983, ptr noundef nonnull @__func__.AddWaitEventToSet) #14
  unreachable

33:                                               ; preds = %28, %23
  %34 = icmp ne i32 %2, -1
  %35 = and i32 %.0, 134
  %.not35 = icmp eq i32 %35, 0
  %or.cond = or i1 %34, %.not35
  br i1 %or.cond, label %39, label %36

36:                                               ; preds = %33
  %37 = tail call zeroext i1 @errstart_cold(i32 noundef 21, ptr noundef null) #15
  tail call void @llvm.assume(i1 %37)
  %38 = tail call i32 (ptr, ...) @errmsg_internal(ptr noundef nonnull @.str.9) #14
  tail call void @errfinish(ptr noundef nonnull @.str.1, i32 noundef 988, ptr noundef nonnull @__func__.AddWaitEventToSet) #14
  unreachable

39:                                               ; preds = %33
  %40 = getelementptr inbounds nuw i8, ptr %0, i64 16
  %41 = load ptr, ptr %40, align 8
  %42 = getelementptr inbounds nuw i8, ptr %0, i64 8
  %43 = load i32, ptr %42, align 8
  %44 = sext i32 %43 to i64
  %45 = getelementptr inbounds %struct.WaitEvent, ptr %41, i64 %44
  %46 = add i32 %43, 1
  store i32 %46, ptr %42, align 8
  store i32 %43, ptr %45, align 8
  %47 = getelementptr inbounds nuw i8, ptr %45, i64 8
  store i32 %2, ptr %47, align 8
  %48 = getelementptr inbounds nuw i8, ptr %45, i64 4
  store i32 %.0, ptr %48, align 4
  %49 = getelementptr inbounds nuw i8, ptr %45, i64 16
  store ptr %4, ptr %49, align 8
  switch i32 %.0, label %55 [
    i32 1, label %50
    i32 16, label %.sink.split
  ]

50:                                               ; preds = %39
  %51 = getelementptr inbounds nuw i8, ptr %0, i64 24
  store ptr %3, ptr %51, align 8
  %52 = load i32, ptr %45, align 8
  %53 = getelementptr inbounds nuw i8, ptr %0, i64 32
  store i32 %52, ptr %53, align 8
  br label %.sink.split

.sink.split:                                      ; preds = %39, %50
  %postmaster_alive_fds.sink = phi ptr [ @signal_fd, %50 ], [ @postmaster_alive_fds, %39 ]
  %54 = load i32, ptr %postmaster_alive_fds.sink, align 4
  store i32 %54, ptr %47, align 8
  br label %55

55:                                               ; preds = %.sink.split, %39
  tail call fastcc void @WaitEventAdjustEpoll(ptr noundef nonnull %0, ptr noundef nonnull %45, i32 noundef 1)
  %56 = load i32, ptr %45, align 8
  ret i32 %56
}